target datalayout = "e-m:e-p270:32:32-p271:32:32-p272:64:64-i64:64-i128:128-f80:128-n8:16:32:64-S128"
target triple = "x86_64-pc-linux-gnu"

%struct.SurfaceDataRasInfo = type { %struct.SurfaceDataBounds, ptr, i32, i32, i32, i32, ptr, ptr, ptr, ptr, ptr, ptr, i32, %union.anon.0 }
%struct.SurfaceDataBounds = type { i32, i32, i32, i32 }
%union.anon.0 = type { ptr, [56 x i8] }

; Function Attrs: nounwind uwtable
define hidden void @ByteIndexedToIndex12GrayConvert(ptr noundef %0, ptr noundef %1, i32 noundef %2, i32 noundef %3, ptr noundef %4, ptr noundef %5, ptr noundef %6, ptr noundef %7) #0 {
  %9 = alloca ptr, align 8
  %10 = alloca ptr, align 8
  %11 = alloca i32, align 4
  %12 = alloca i32, align 4
  %13 = alloca ptr, align 8
  %14 = alloca ptr, align 8
  %15 = alloca ptr, align 8
  %16 = alloca ptr, align 8
  %17 = alloca ptr, align 8
  %18 = alloca ptr, align 8
  %19 = alloca ptr, align 8
  %20 = alloca ptr, align 8
  %21 = alloca i32, align 4
  %22 = alloca i32, align 4
  %23 = alloca i32, align 4
  %24 = alloca i32, align 4
  %25 = alloca i32, align 4
  %26 = alloca i32, align 4
  %27 = alloca i32, align 4
  %28 = alloca i32, align 4
  store ptr %0, ptr %9, align 8
  store ptr %1, ptr %10, align 8
  store i32 %2, ptr %11, align 4
  store i32 %3, ptr %12, align 4
  store ptr %4, ptr %13, align 8
  store ptr %5, ptr %14, align 8
  store ptr %6, ptr %15, align 8
  store ptr %7, ptr %16, align 8
  %29 = load ptr, ptr %13, align 8
  %30 = getelementptr inbounds %struct.SurfaceDataRasInfo, ptr %29, i32 0, i32 6
  %31 = load ptr, ptr %30, align 8
  store ptr %31, ptr %17, align 8
  br label %32

32:                                               ; preds = %8
  %33 = load ptr, ptr %9, align 8
  store ptr %33, ptr %19, align 8
  %34 = load ptr, ptr %10, align 8
  store ptr %34, ptr %20, align 8
  %35 = load ptr, ptr %13, align 8
  %36 = getelementptr inbounds %struct.SurfaceDataRasInfo, ptr %35, i32 0, i32 4
  %37 = load i32, ptr %36, align 8
  store i32 %37, ptr %21, align 4
  %38 = load ptr, ptr %14, align 8
  %39 = getelementptr inbounds %struct.SurfaceDataRasInfo, ptr %38, i32 0, i32 4
  %40 = load i32, ptr %39, align 8
  store i32 %40, ptr %22, align 4
  %41 = load ptr, ptr %14, align 8
  %42 = getelementptr inbounds %struct.SurfaceDataRasInfo, ptr %41, i32 0, i32 11
  %43 = load ptr, ptr %42, align 8
  store ptr %43, ptr %18, align 8
  %44 = load i32, ptr %11, align 4
  %45 = mul i32 %44, 1
  %46 = load i32, ptr %21, align 4
  %47 = sub i32 %46, %45
  store i32 %47, ptr %21, align 4
  %48 = load i32, ptr %11, align 4
  %49 = mul i32 %48, 2
  %50 = load i32, ptr %22, align 4
  %51 = sub i32 %50, %49
  store i32 %51, ptr %22, align 4
  br label %52

52:                                               ; preds = %123, %32
  %53 = load i32, ptr %11, align 4
  store i32 %53, ptr %23, align 4
  br label %54

54:                                               ; preds = %106, %52
  br label %55

55:                                               ; preds = %54
  br label %56

56:                                               ; preds = %55
  %57 = load ptr, ptr %17, align 8
  %58 = load ptr, ptr %19, align 8
  %59 = getelementptr inbounds i8, ptr %58, i64 0
  %60 = load i8, ptr %59, align 1
  %61 = zext i8 %60 to i64
  %62 = getelementptr inbounds i32, ptr %57, i64 %61
  %63 = load i32, ptr %62, align 4
  store i32 %63, ptr %27, align 4
  br label %64

64:                                               ; preds = %56
  %65 = load i32, ptr %27, align 4
  %66 = and i32 %65, 255
  store i32 %66, ptr %26, align 4
  %67 = load i32, ptr %27, align 4
  %68 = ashr i32 %67, 8
  %69 = and i32 %68, 255
  store i32 %69, ptr %25, align 4
  %70 = load i32, ptr %27, align 4
  %71 = ashr i32 %70, 16
  %72 = and i32 %71, 255
  store i32 %72, ptr %24, align 4
  br label %73

73:                                               ; preds = %64
  br label %74

74:                                               ; preds = %73
  br label %75

75:                                               ; preds = %74
  %76 = load i32, ptr %24, align 4
  %77 = mul nsw i32 77, %76
  %78 = load i32, ptr %25, align 4
  %79 = mul nsw i32 150, %78
  %80 = add nsw i32 %77, %79
  %81 = load i32, ptr %26, align 4
  %82 = mul nsw i32 29, %81
  %83 = add nsw i32 %80, %82
  %84 = add nsw i32 %83, 128
  %85 = sdiv i32 %84, 256
  %86 = trunc i32 %85 to i8
  %87 = zext i8 %86 to i32
  store i32 %87, ptr %28, align 4
  %88 = load ptr, ptr %18, align 8
  %89 = load i32, ptr %28, align 4
  %90 = sext i32 %89 to i64
  %91 = getelementptr inbounds i32, ptr %88, i64 %90
  %92 = load i32, ptr %91, align 4
  %93 = trunc i32 %92 to i16
  %94 = load ptr, ptr %20, align 8
  %95 = getelementptr inbounds i16, ptr %94, i64 0
  store i16 %93, ptr %95, align 2
  br label %96

96:                                               ; preds = %75
  br label %97

97:                                               ; preds = %96
  %98 = load ptr, ptr %19, align 8
  %99 = ptrtoint ptr %98 to i64
  %100 = add nsw i64 %99, 1
  %101 = inttoptr i64 %100 to ptr
  store ptr %101, ptr %19, align 8
  %102 = load ptr, ptr %20, align 8
  %103 = ptrtoint ptr %102 to i64
  %104 = add nsw i64 %103, 2
  %105 = inttoptr i64 %104 to ptr
  store ptr %105, ptr %20, align 8
  br label %106

106:                                              ; preds = %97
  %107 = load i32, ptr %23, align 4
  %108 = add i32 %107, -1
  store i32 %108, ptr %23, align 4
  %109 = icmp ugt i32 %108, 0
  br i1 %109, label %54, label %110, !llvm.loop !18

110:                                              ; preds = %106
  %111 = load ptr, ptr %19, align 8
  %112 = ptrtoint ptr %111 to i64
  %113 = load i32, ptr %21, align 4
  %114 = sext i32 %113 to i64
  %115 = add nsw i64 %112, %114
  %116 = inttoptr i64 %115 to ptr
  store ptr %116, ptr %19, align 8
  %117 = load ptr, ptr %20, align 8
  %118 = ptrtoint ptr %117 to i64
  %119 = load i32, ptr %22, align 4
  %120 = sext i32 %119 to i64
  %121 = add nsw i64 %118, %120
  %122 = inttoptr i64 %121 to ptr
  store ptr %122, ptr %20, align 8
  br label %123

123:                                              ; preds = %110
  %124 = load i32, ptr %12, align 4
  %125 = add i32 %124, -1
  store i32 %125, ptr %12, align 4
  %126 = icmp ugt i32 %125, 0
  br i1 %126, label %52, label %127, !llvm.loop !19

127:                                              ; preds = %123
  br label %128

128:                                              ; preds = %127
  ret void
}