; Function Attrs: nofree norecurse nosync nounwind memory(readwrite, inaccessiblemem: none) uwtable
define hidden void @ByteIndexedToIndex12GrayConvert(ptr noundef %0, ptr noundef %1, i32 noundef %2, i32 noundef %3, ptr nocapture noundef readonly %4, ptr nocapture noundef readonly %5, ptr nocapture readnone %6, ptr nocapture readnone %7) #0 {
  %9 = getelementptr inbounds i8, ptr %4, i64 40
  %10 = load ptr, ptr %9, align 8
  %11 = getelementptr inbounds i8, ptr %4, i64 32
  %12 = load i32, ptr %11, align 8
  %13 = getelementptr inbounds i8, ptr %5, i64 32
  %14 = load i32, ptr %13, align 8
  %15 = getelementptr inbounds i8, ptr %5, i64 80
  %16 = load ptr, ptr %15, align 8
  %17 = sub i32 %12, %2
  %18 = shl i32 %2, 1
  %19 = sub i32 %14, %18
  %20 = sext i32 %17 to i64
  %21 = sext i32 %19 to i64
  br label %22

22:                                               ; preds = %51, %8
  %.030 = phi ptr [ %1, %8 ], [ %55, %51 ]
  %.029 = phi ptr [ %0, %8 ], [ %53, %51 ]
  %.0 = phi i32 [ %3, %8 ], [ %56, %51 ]
  br label %23

23:                                               ; preds = %23, %22
  %.032 = phi i32 [ %2, %22 ], [ %50, %23 ]
  %.131 = phi ptr [ %.030, %22 ], [ %49, %23 ]
  %.1 = phi ptr [ %.029, %22 ], [ %46, %23 ]
  %24 = load i8, ptr %.1, align 1
  %25 = zext i8 %24 to i64
  %26 = getelementptr inbounds i32, ptr %10, i64 %25
  %27 = load i32, ptr %26, align 4
  %28 = and i32 %27, 255
  %29 = lshr i32 %27, 8
  %30 = and i32 %29, 255
  %31 = lshr i32 %27, 16
  %32 = and i32 %31, 255
  %33 = mul nuw nsw i32 %32, 77
  %34 = mul nuw nsw i32 %30, 150
  %35 = mul nuw nsw i32 %28, 29
  %36 = add nuw nsw i32 %35, 128
  %37 = add nuw nsw i32 %36, %34
  %38 = add nuw nsw i32 %37, %33
  %39 = lshr i32 %38, 8
  %40 = zext nneg i32 %39 to i64
  %41 = getelementptr inbounds i32, ptr %16, i64 %40
  %42 = load i32, ptr %41, align 4
  %43 = trunc i32 %42 to i16
  store i16 %43, ptr %.131, align 2
  %44 = ptrtoint ptr %.1 to i64
  %45 = add nsw i64 %44, 1
  %46 = inttoptr i64 %45 to ptr
  %47 = ptrtoint ptr %.131 to i64
  %48 = add nsw i64 %47, 2
  %49 = inttoptr i64 %48 to ptr
  %50 = add i32 %.032, -1
  %.not = icmp eq i32 %50, 0
  br i1 %.not, label %51, label %23, !llvm.loop !18

51:                                               ; preds = %23
  %52 = add nsw i64 %45, %20
  %53 = inttoptr i64 %52 to ptr
  %54 = add nsw i64 %48, %21
  %55 = inttoptr i64 %54 to ptr
  %56 = add i32 %.0, -1
  %.not34 = icmp eq i32 %56, 0
  br i1 %.not34, label %57, label %22, !llvm.loop !19

57:                                               ; preds = %51
  ret void
}